target datalayout = "e-m:e-p270:32:32-p271:32:32-p272:64:64-i64:64-i128:128-f80:128-n8:16:32:64-S128"
target triple = "x86_64-pc-linux-gnu"

%struct.quicklistNode = type { ptr, ptr, ptr, i64, i32 }

@.str.1 = private unnamed_addr constant [12 x i8] c"quicklist.c\00", align 1
@.str.21 = private unnamed_addr constant [9 x i8] c"fill < 0\00", align 1
@optimization_level = internal constant [5 x i64] [i64 4096, i64 8192, i64 16384, i64 32768, i64 65536], align 16

; Function Attrs: nounwind uwtable
define internal i64 @quicklistNodeNegFillLimit(i32 noundef %0) #0 {
  %2 = alloca i32, align 4
  %3 = alloca i64, align 8
  %4 = alloca i64, align 8
  store i32 %0, ptr %2, align 4, !tbaa !14
  %5 = load i32, ptr %2, align 4, !tbaa !14
  %6 = icmp slt i32 %5, 0
  %7 = xor i1 %6, true
  %8 = xor i1 %7, true
  %9 = zext i1 %8 to i32
  %10 = sext i32 %9 to i64
  %11 = call i64 @llvm.expect.i64(i64 %10, i64 1)
  %12 = icmp ne i64 %11, 0
  br i1 %12, label %13, label %14

13:                                               ; preds = %1
  br label %16

14:                                               ; preds = %1
  call void @_serverAssert(ptr noundef @.str.21, ptr noundef @.str.1, i32 noundef 463)
  call void @abort() #12
  unreachable

15:                                               ; No predecessors!
  br label %16

16:                                               ; preds = %15, %13
  call void @llvm.lifetime.start.p0(i64 8, ptr %3) #10
  %17 = load i32, ptr %2, align 4, !tbaa !14
  %18 = sub nsw i32 0, %17
  %19 = sub nsw i32 %18, 1
  %20 = sext i32 %19 to i64
  store i64 %20, ptr %3, align 8, !tbaa !5
  call void @llvm.lifetime.start.p0(i64 8, ptr %4) #10
  store i64 5, ptr %4, align 8, !tbaa !5
  %21 = load i64, ptr %3, align 8, !tbaa !5
  %22 = load i64, ptr %4, align 8, !tbaa !5
  %23 = icmp uge i64 %21, %22
  br i1 %23, label %24, label %27

24:                                               ; preds = %16
  %25 = load i64, ptr %4, align 8, !tbaa !5
  %26 = sub i64 %25, 1
  store i64 %26, ptr %3, align 8, !tbaa !5
  br label %27

27:                                               ; preds = %24, %16
  %28 = load i64, ptr %3, align 8, !tbaa !5
  %29 = getelementptr inbounds nuw [5 x i64], ptr @optimization_level, i64 0, i64 %28
  %30 = load i64, ptr %29, align 8, !tbaa !5
  call void @llvm.lifetime.end.p0(i64 8, ptr %4) #10
  call void @llvm.lifetime.end.p0(i64 8, ptr %3) #10
  ret i64 %30
}

; Function Attrs: nounwind uwtable
define dso_local void @quicklistNodeLimit(i32 noundef %0, ptr noundef %1, ptr noundef %2) #0 {
  %4 = alloca i32, align 4
  %5 = alloca ptr, align 8
  %6 = alloca ptr, align 8
  store i32 %0, ptr %4, align 4, !tbaa !14
  store ptr %1, ptr %5, align 8, !tbaa !31
  store ptr %2, ptr %6, align 8, !tbaa !33
  %7 = load ptr, ptr %5, align 8, !tbaa !31
  store i64 -1, ptr %7, align 8, !tbaa !5
  %8 = load ptr, ptr %6, align 8, !tbaa !33
  store i32 -1, ptr %8, align 4, !tbaa !14
  %9 = load i32, ptr %4, align 4, !tbaa !14
  %10 = icmp sge i32 %9, 0
  br i1 %10, label %11, label %20

11:                                               ; preds = %3
  %12 = load i32, ptr %4, align 4, !tbaa !14
  %13 = icmp eq i32 %12, 0
  br i1 %13, label %14, label %15

14:                                               ; preds = %11
  br label %17

15:                                               ; preds = %11
  %16 = load i32, ptr %4, align 4, !tbaa !14
  br label %17

17:                                               ; preds = %15, %14
  %18 = phi i32 [ 1, %14 ], [ %16, %15 ]
  %19 = load ptr, ptr %6, align 8, !tbaa !33
  store i32 %18, ptr %19, align 4, !tbaa !14
  br label %24

20:                                               ; preds = %3
  %21 = load i32, ptr %4, align 4, !tbaa !14
  %22 = call i64 @quicklistNodeNegFillLimit(i32 noundef %21)
  %23 = load ptr, ptr %5, align 8, !tbaa !31
  store i64 %22, ptr %23, align 8, !tbaa !5
  br label %24

24:                                               ; preds = %20, %17
  ret void
}

; Function Attrs: nounwind uwtable
define dso_local i32 @quicklistNodeExceedsLimit(i32 noundef %0, i64 noundef %1, i32 noundef %2) #0 {
  %4 = alloca i32, align 4
  %5 = alloca i32, align 4
  %6 = alloca i64, align 8
  %7 = alloca i32, align 4
  %8 = alloca i64, align 8
  %9 = alloca i32, align 4
  %10 = alloca i32, align 4
  store i32 %0, ptr %5, align 4, !tbaa !14
  store i64 %1, ptr %6, align 8, !tbaa !5
  store i32 %2, ptr %7, align 4, !tbaa !14
  call void @llvm.lifetime.start.p0(i64 8, ptr %8) #10
  call void @llvm.lifetime.start.p0(i64 4, ptr %9) #10
  %11 = load i32, ptr %5, align 4, !tbaa !14
  call void @quicklistNodeLimit(i32 noundef %11, ptr noundef %8, ptr noundef %9)
  %12 = load i64, ptr %8, align 8, !tbaa !5
  %13 = icmp ne i64 %12, -1
  %14 = xor i1 %13, true
  %15 = xor i1 %14, true
  %16 = zext i1 %15 to i32
  %17 = sext i32 %16 to i64
  %18 = call i64 @llvm.expect.i64(i64 %17, i64 1)
  %19 = icmp ne i64 %18, 0
  br i1 %19, label %20, label %25

20:                                               ; preds = %3
  %21 = load i64, ptr %6, align 8, !tbaa !5
  %22 = load i64, ptr %8, align 8, !tbaa !5
  %23 = icmp ugt i64 %21, %22
  %24 = zext i1 %23 to i32
  store i32 %24, ptr %4, align 4
  store i32 1, ptr %10, align 4
  br label %39

25:                                               ; preds = %3
  %26 = load i32, ptr %9, align 4, !tbaa !14
  %27 = icmp ne i32 %26, -1
  br i1 %27, label %28, label %37

28:                                               ; preds = %25
  %29 = load i64, ptr %6, align 8, !tbaa !5
  %30 = icmp ule i64 %29, 8192
  br i1 %30, label %32, label %31

31:                                               ; preds = %28
  store i32 1, ptr %4, align 4
  store i32 1, ptr %10, align 4
  br label %39

32:                                               ; preds = %28
  %33 = load i32, ptr %7, align 4, !tbaa !14
  %34 = load i32, ptr %9, align 4, !tbaa !14
  %35 = icmp ugt i32 %33, %34
  %36 = zext i1 %35 to i32
  store i32 %36, ptr %4, align 4
  store i32 1, ptr %10, align 4
  br label %39

37:                                               ; preds = %25
  br label %38

38:                                               ; preds = %37
  call void @abort() #12
  unreachable

39:                                               ; preds = %32, %31, %20
  call void @llvm.lifetime.end.p0(i64 4, ptr %9) #10
  call void @llvm.lifetime.end.p0(i64 8, ptr %8) #10
  %40 = load i32, ptr %4, align 4
  ret i32 %40
}

; Function Attrs: nounwind uwtable
define dso_local i32 @_quicklistNodeAllowMerge(ptr noundef %0, ptr noundef %1, i32 noundef %2) #0 {
  %4 = alloca i32, align 4
  %5 = alloca ptr, align 8
  %6 = alloca ptr, align 8
  %7 = alloca i32, align 4
  %8 = alloca i32, align 4
  %9 = alloca i32, align 4
  store ptr %0, ptr %5, align 8, !tbaa !12
  store ptr %1, ptr %6, align 8, !tbaa !12
  store i32 %2, ptr %7, align 4, !tbaa !14
  %10 = load ptr, ptr %5, align 8, !tbaa !12
  %11 = icmp ne ptr %10, null
  br i1 %11, label %12, label %15

12:                                               ; preds = %3
  %13 = load ptr, ptr %6, align 8, !tbaa !12
  %14 = icmp ne ptr %13, null
  br i1 %14, label %16, label %15

15:                                               ; preds = %12, %3
  store i32 0, ptr %4, align 4
  br label %72

16:                                               ; preds = %12
  %17 = load ptr, ptr %5, align 8, !tbaa !12
  %18 = getelementptr inbounds nuw %struct.quicklistNode, ptr %17, i32 0, i32 4
  %19 = load i32, ptr %18, align 8
  %20 = lshr i32 %19, 18
  %21 = and i32 %20, 3
  %22 = icmp eq i32 %21, 1
  br i1 %22, label %30, label %23

23:                                               ; preds = %16
  %24 = load ptr, ptr %6, align 8, !tbaa !12
  %25 = getelementptr inbounds nuw %struct.quicklistNode, ptr %24, i32 0, i32 4
  %26 = load i32, ptr %25, align 8
  %27 = lshr i32 %26, 18
  %28 = and i32 %27, 3
  %29 = icmp eq i32 %28, 1
  br label %30

30:                                               ; preds = %23, %16
  %31 = phi i1 [ true, %16 ], [ %29, %23 ]
  %32 = xor i1 %31, true
  %33 = xor i1 %32, true
  %34 = zext i1 %33 to i32
  %35 = sext i32 %34 to i64
  %36 = call i64 @llvm.expect.i64(i64 %35, i64 0)
  %37 = icmp ne i64 %36, 0
  br i1 %37, label %38, label %39

38:                                               ; preds = %30
  store i32 0, ptr %4, align 4
  br label %72

39:                                               ; preds = %30
  call void @llvm.lifetime.start.p0(i64 4, ptr %8) #10
  %40 = load ptr, ptr %5, align 8, !tbaa !12
  %41 = getelementptr inbounds nuw %struct.quicklistNode, ptr %40, i32 0, i32 3
  %42 = load i64, ptr %41, align 8, !tbaa !19
  %43 = load ptr, ptr %6, align 8, !tbaa !12
  %44 = getelementptr inbounds nuw %struct.quicklistNode, ptr %43, i32 0, i32 3
  %45 = load i64, ptr %44, align 8, !tbaa !19
  %46 = add i64 %42, %45
  %47 = sub i64 %46, 7
  %48 = trunc i64 %47 to i32
  store i32 %48, ptr %8, align 4, !tbaa !14
  %49 = load i32, ptr %7, align 4, !tbaa !14
  %50 = load i32, ptr %8, align 4, !tbaa !14
  %51 = zext i32 %50 to i64
  %52 = load ptr, ptr %5, align 8, !tbaa !12
  %53 = getelementptr inbounds nuw %struct.quicklistNode, ptr %52, i32 0, i32 4
  %54 = load i32, ptr %53, align 8
  %55 = and i32 %54, 65535
  %56 = load ptr, ptr %6, align 8, !tbaa !12
  %57 = getelementptr inbounds nuw %struct.quicklistNode, ptr %56, i32 0, i32 4
  %58 = load i32, ptr %57, align 8
  %59 = and i32 %58, 65535
  %60 = add nsw i32 %55, %59
  %61 = call i32 @quicklistNodeExceedsLimit(i32 noundef %49, i64 noundef %51, i32 noundef %60)
  %62 = icmp ne i32 %61, 0
  %63 = xor i1 %62, true
  %64 = xor i1 %63, true
  %65 = zext i1 %64 to i32
  %66 = sext i32 %65 to i64
  %67 = call i64 @llvm.expect.i64(i64 %66, i64 0)
  %68 = icmp ne i64 %67, 0
  br i1 %68, label %69, label %70

69:                                               ; preds = %39
  store i32 0, ptr %4, align 4
  store i32 1, ptr %9, align 4
  br label %71

70:                                               ; preds = %39
  store i32 1, ptr %4, align 4
  store i32 1, ptr %9, align 4
  br label %71

71:                                               ; preds = %70, %69
  call void @llvm.lifetime.end.p0(i64 4, ptr %8) #10
  br label %72

72:                                               ; preds = %71, %38, %15
  %73 = load i32, ptr %4, align 4
  ret i32 %73
}