; Function Attrs: mustprogress nofree norecurse nosync nounwind willreturn memory(argmem: read) uwtable
define dso_local range(i32 0, 2) i32 @_quicklistNodeAllowMerge(ptr noundef readonly captures(address_is_null) %0, ptr noundef readonly captures(address_is_null) %1, i32 noundef %2) local_unnamed_addr #5 {
  %4 = icmp ne ptr %0, null
  %5 = icmp ne ptr %1, null
  %or.cond = and i1 %4, %5
  br i1 %or.cond, label %6, label %.critedge

6:                                                ; preds = %3
  %7 = getelementptr inbounds nuw i8, ptr %0, i64 32
  %8 = load i32, ptr %7, align 8
  %9 = and i32 %8, 786432
  %10 = icmp eq i32 %9, 262144
  br i1 %10, label %.critedge, label %11, !prof !24

11:                                               ; preds = %6
  %12 = getelementptr inbounds nuw i8, ptr %1, i64 32
  %13 = load i32, ptr %12, align 8
  %14 = and i32 %13, 786432
  %15 = icmp eq i32 %14, 262144
  br i1 %15, label %.critedge, label %16, !prof !24

16:                                               ; preds = %11
  %17 = getelementptr inbounds nuw i8, ptr %0, i64 24
  %18 = load i64, ptr %17, align 8, !tbaa !15
  %19 = getelementptr inbounds nuw i8, ptr %1, i64 24
  %20 = load i64, ptr %19, align 8, !tbaa !15
  %21 = add i64 %18, 4294967289
  %22 = add i64 %21, %20
  %23 = and i64 %22, 4294967295
  %24 = icmp sgt i32 %2, -1
  br i1 %24, label %29, label %quicklistNodeLimit.exit.i

quicklistNodeLimit.exit.i:                        ; preds = %16
  %25 = tail call i32 @llvm.umax.i32(i32 range(i32 -2147483648, 0) %2, i32 -5)
  %narrow.i.i.i = xor i32 %25, -1
  %.0.i.i.i = zext nneg i32 %narrow.i.i.i to i64
  %26 = getelementptr inbounds nuw [5 x i64], ptr @optimization_level, i64 0, i64 %.0.i.i.i
  %27 = load i64, ptr %26, align 8, !tbaa !5
  %28 = icmp ugt i64 %23, %27
  br label %quicklistNodeExceedsLimit.exit

29:                                               ; preds = %16
  %30 = and i32 %8, 65535
  %31 = and i32 %13, 65535
  %32 = add nuw nsw i32 %31, %30
  %33 = tail call i32 @llvm.umax.i32(i32 %2, i32 1)
  %34 = icmp samesign ugt i64 %23, 8192
  %35 = icmp samesign ugt i32 %32, %33
  %spec.select.i = or i1 %35, %34
  br label %quicklistNodeExceedsLimit.exit

quicklistNodeExceedsLimit.exit:                   ; preds = %quicklistNodeLimit.exit.i, %29
  %.0.shrunk.i = phi i1 [ %28, %quicklistNodeLimit.exit.i ], [ %spec.select.i, %29 ]
  %.not = xor i1 %.0.shrunk.i, true
  %. = zext i1 %.not to i32
  br label %.critedge

.critedge:                                        ; preds = %6, %11, %3, %quicklistNodeExceedsLimit.exit
  %.0 = phi i32 [ %., %quicklistNodeExceedsLimit.exit ], [ 0, %3 ], [ 0, %11 ], [ 0, %6 ]
  ret i32 %.0
}